target datalayout = "e-m:e-p270:32:32-p271:32:32-p272:64:64-i64:64-i128:128-f80:128-n8:16:32:64-S128"
target triple = "x86_64-pc-linux-gnu"

%struct.Var = type { %struct.Expr, i32, i16, i32, i32, i32, ptr, i32, i32, i32, i16, i32 }
%struct.Expr = type { i32 }

; Function Attrs: nounwind uwtable
define internal zeroext i1 @_equalVar(ptr noundef %0, ptr noundef %1) #0 {
  %3 = alloca i1, align 1
  %4 = alloca ptr, align 8
  %5 = alloca ptr, align 8
  store ptr %0, ptr %4, align 8
  store ptr %1, ptr %5, align 8
  br label %6

6:                                                ; preds = %2
  %7 = load ptr, ptr %4, align 8
  %8 = getelementptr inbounds nuw %struct.Var, ptr %7, i32 0, i32 1
  %9 = load i32, ptr %8, align 4
  %10 = load ptr, ptr %5, align 8
  %11 = getelementptr inbounds nuw %struct.Var, ptr %10, i32 0, i32 1
  %12 = load i32, ptr %11, align 4
  %13 = icmp ne i32 %9, %12
  br i1 %13, label %14, label %15

14:                                               ; preds = %6
  store i1 false, ptr %3, align 1
  br label %96

15:                                               ; preds = %6
  br label %16

16:                                               ; preds = %15
  br label %17

17:                                               ; preds = %16
  %18 = load ptr, ptr %4, align 8
  %19 = getelementptr inbounds nuw %struct.Var, ptr %18, i32 0, i32 2
  %20 = load i16, ptr %19, align 8
  %21 = sext i16 %20 to i32
  %22 = load ptr, ptr %5, align 8
  %23 = getelementptr inbounds nuw %struct.Var, ptr %22, i32 0, i32 2
  %24 = load i16, ptr %23, align 8
  %25 = sext i16 %24 to i32
  %26 = icmp ne i32 %21, %25
  br i1 %26, label %27, label %28

27:                                               ; preds = %17
  store i1 false, ptr %3, align 1
  br label %96

28:                                               ; preds = %17
  br label %29

29:                                               ; preds = %28
  br label %30

30:                                               ; preds = %29
  %31 = load ptr, ptr %4, align 8
  %32 = getelementptr inbounds nuw %struct.Var, ptr %31, i32 0, i32 3
  %33 = load i32, ptr %32, align 4
  %34 = load ptr, ptr %5, align 8
  %35 = getelementptr inbounds nuw %struct.Var, ptr %34, i32 0, i32 3
  %36 = load i32, ptr %35, align 4
  %37 = icmp ne i32 %33, %36
  br i1 %37, label %38, label %39

38:                                               ; preds = %30
  store i1 false, ptr %3, align 1
  br label %96

39:                                               ; preds = %30
  br label %40

40:                                               ; preds = %39
  br label %41

41:                                               ; preds = %40
  %42 = load ptr, ptr %4, align 8
  %43 = getelementptr inbounds nuw %struct.Var, ptr %42, i32 0, i32 4
  %44 = load i32, ptr %43, align 8
  %45 = load ptr, ptr %5, align 8
  %46 = getelementptr inbounds nuw %struct.Var, ptr %45, i32 0, i32 4
  %47 = load i32, ptr %46, align 8
  %48 = icmp ne i32 %44, %47
  br i1 %48, label %49, label %50

49:                                               ; preds = %41
  store i1 false, ptr %3, align 1
  br label %96

50:                                               ; preds = %41
  br label %51

51:                                               ; preds = %50
  br label %52

52:                                               ; preds = %51
  %53 = load ptr, ptr %4, align 8
  %54 = getelementptr inbounds nuw %struct.Var, ptr %53, i32 0, i32 5
  %55 = load i32, ptr %54, align 4
  %56 = load ptr, ptr %5, align 8
  %57 = getelementptr inbounds nuw %struct.Var, ptr %56, i32 0, i32 5
  %58 = load i32, ptr %57, align 4
  %59 = icmp ne i32 %55, %58
  br i1 %59, label %60, label %61

60:                                               ; preds = %52
  store i1 false, ptr %3, align 1
  br label %96

61:                                               ; preds = %52
  br label %62

62:                                               ; preds = %61
  br label %63

63:                                               ; preds = %62
  %64 = load ptr, ptr %4, align 8
  %65 = getelementptr inbounds nuw %struct.Var, ptr %64, i32 0, i32 6
  %66 = load ptr, ptr %65, align 8
  %67 = load ptr, ptr %5, align 8
  %68 = getelementptr inbounds nuw %struct.Var, ptr %67, i32 0, i32 6
  %69 = load ptr, ptr %68, align 8
  %70 = call zeroext i1 @bms_equal(ptr noundef %66, ptr noundef %69)
  br i1 %70, label %72, label %71

71:                                               ; preds = %63
  store i1 false, ptr %3, align 1
  br label %96

72:                                               ; preds = %63
  br label %73

73:                                               ; preds = %72
  br label %74

74:                                               ; preds = %73
  %75 = load ptr, ptr %4, align 8
  %76 = getelementptr inbounds nuw %struct.Var, ptr %75, i32 0, i32 7
  %77 = load i32, ptr %76, align 8
  %78 = load ptr, ptr %5, align 8
  %79 = getelementptr inbounds nuw %struct.Var, ptr %78, i32 0, i32 7
  %80 = load i32, ptr %79, align 8
  %81 = icmp ne i32 %77, %80
  br i1 %81, label %82, label %83

82:                                               ; preds = %74
  store i1 false, ptr %3, align 1
  br label %96

83:                                               ; preds = %74
  br label %84

84:                                               ; preds = %83
  br label %85

85:                                               ; preds = %84
  %86 = load ptr, ptr %4, align 8
  %87 = getelementptr inbounds nuw %struct.Var, ptr %86, i32 0, i32 8
  %88 = load i32, ptr %87, align 4
  %89 = load ptr, ptr %5, align 8
  %90 = getelementptr inbounds nuw %struct.Var, ptr %89, i32 0, i32 8
  %91 = load i32, ptr %90, align 4
  %92 = icmp ne i32 %88, %91
  br i1 %92, label %93, label %94

93:                                               ; preds = %85
  store i1 false, ptr %3, align 1
  br label %96

94:                                               ; preds = %85
  br label %95

95:                                               ; preds = %94
  store i1 true, ptr %3, align 1
  br label %96

96:                                               ; preds = %95, %93, %82, %71, %60, %49, %38, %27, %14
  %97 = load i1, ptr %3, align 1
  ret i1 %97
}