; Function Attrs: nounwind uwtable
define internal fastcc zeroext i1 @_equalVar(ptr noundef nonnull readonly captures(none) %0, ptr noundef nonnull readonly captures(none) %1) unnamed_addr #0 {
  %3 = getelementptr inbounds nuw i8, ptr %0, i64 4
  %4 = load i32, ptr %3, align 4
  %5 = getelementptr inbounds nuw i8, ptr %1, i64 4
  %6 = load i32, ptr %5, align 4
  %.not = icmp eq i32 %4, %6
  br i1 %.not, label %7, label %43

7:                                                ; preds = %2
  %8 = getelementptr inbounds nuw i8, ptr %0, i64 8
  %9 = load i16, ptr %8, align 8
  %10 = getelementptr inbounds nuw i8, ptr %1, i64 8
  %11 = load i16, ptr %10, align 8
  %.not17 = icmp eq i16 %9, %11
  br i1 %.not17, label %12, label %43

12:                                               ; preds = %7
  %13 = getelementptr inbounds nuw i8, ptr %0, i64 12
  %14 = load i32, ptr %13, align 4
  %15 = getelementptr inbounds nuw i8, ptr %1, i64 12
  %16 = load i32, ptr %15, align 4
  %.not18 = icmp eq i32 %14, %16
  br i1 %.not18, label %17, label %43

17:                                               ; preds = %12
  %18 = getelementptr inbounds nuw i8, ptr %0, i64 16
  %19 = load i32, ptr %18, align 8
  %20 = getelementptr inbounds nuw i8, ptr %1, i64 16
  %21 = load i32, ptr %20, align 8
  %.not19 = icmp eq i32 %19, %21
  br i1 %.not19, label %22, label %43

22:                                               ; preds = %17
  %23 = getelementptr inbounds nuw i8, ptr %0, i64 20
  %24 = load i32, ptr %23, align 4
  %25 = getelementptr inbounds nuw i8, ptr %1, i64 20
  %26 = load i32, ptr %25, align 4
  %.not20 = icmp eq i32 %24, %26
  br i1 %.not20, label %27, label %43

27:                                               ; preds = %22
  %28 = getelementptr inbounds nuw i8, ptr %0, i64 24
  %29 = load ptr, ptr %28, align 8
  %30 = getelementptr inbounds nuw i8, ptr %1, i64 24
  %31 = load ptr, ptr %30, align 8
  %32 = tail call zeroext i1 @bms_equal(ptr noundef %29, ptr noundef %31) #9
  br i1 %32, label %33, label %43

33:                                               ; preds = %27
  %34 = getelementptr inbounds nuw i8, ptr %0, i64 32
  %35 = load i32, ptr %34, align 8
  %36 = getelementptr inbounds nuw i8, ptr %1, i64 32
  %37 = load i32, ptr %36, align 8
  %.not21 = icmp eq i32 %35, %37
  br i1 %.not21, label %38, label %43

38:                                               ; preds = %33
  %39 = getelementptr inbounds nuw i8, ptr %0, i64 36
  %40 = load i32, ptr %39, align 4
  %41 = getelementptr inbounds nuw i8, ptr %1, i64 36
  %42 = load i32, ptr %41, align 4
  %.not22 = icmp eq i32 %40, %42
  br label %43

43:                                               ; preds = %38, %33, %27, %22, %17, %12, %7, %2
  %.0 = phi i1 [ false, %2 ], [ false, %7 ], [ false, %12 ], [ false, %17 ], [ false, %22 ], [ false, %27 ], [ false, %33 ], [ %.not22, %38 ]
  ret i1 %.0
}